	.file	"trailing_blanks.c"
	.text
	.section	.rodata
.LC0:
	.string	"%s"
	.text
	.globl	main
	.type	main, @function
main:
.LFB0:
	.cfi_startproc
	pushq	%rbp
	.cfi_def_cfa_offset 16
	.cfi_offset 6, -16
	movq	%rsp, %rbp
	.cfi_def_cfa_register 6
	subq	$1024, %rsp
	movq	%fs:40, %rax
	movq	%rax, -8(%rbp)
	xorl	%eax, %eax
	jmp	.L2
.L3:
	movl	-1012(%rbp), %edx
	leaq	-1008(%rbp), %rax
	movl	%edx, %esi
	movq	%rax, %rdi
	call	remove_trailing_blanks
	leaq	-1008(%rbp), %rax
	movq	%rax, %rsi
	leaq	.LC0(%rip), %rax
	movq	%rax, %rdi
	movl	$0, %eax
	call	printf@PLT
.L2:
	leaq	-1008(%rbp), %rax
	movl	$1000, %esi
	movq	%rax, %rdi
	call	get_line
	movl	%eax, -1012(%rbp)
	cmpl	$0, -1012(%rbp)
	jg	.L3
	movl	$0, %eax
	movq	-8(%rbp), %rdx
	subq	%fs:40, %rdx
	je	.L5
	call	__stack_chk_fail@PLT
.L5:
	leave
	.cfi_def_cfa 7, 8
	ret
	.cfi_endproc
.LFE0:
	.size	main, .-main
	.globl	get_line
	.type	get_line, @function
get_line:
.LFB1:
	.cfi_startproc
	pushq	%rbp
	.cfi_def_cfa_offset 16
	.cfi_offset 6, -16
	movq	%rsp, %rbp
	.cfi_def_cfa_register 6
	subq	$32, %rsp
	movq	%rdi, -24(%rbp)
	movl	%esi, -28(%rbp)
	movl	$0, -4(%rbp)
	jmp	.L7
.L9:
	movl	-4(%rbp), %eax
	movslq	%eax, %rdx
	movq	-24(%rbp), %rax
	addq	%rdx, %rax
	movl	-8(%rbp), %edx
	movb	%dl, (%rax)
	addl	$1, -4(%rbp)
.L7:
	movl	-28(%rbp), %eax
	subl	$1, %eax
	cmpl	%eax, -4(%rbp)
	jge	.L8
	call	getchar@PLT
	movl	%eax, -8(%rbp)
	cmpl	$-1, -8(%rbp)
	je	.L8
	cmpl	$10, -8(%rbp)
	jne	.L9
.L8:
	cmpl	$10, -8(%rbp)
	jne	.L10
	movl	-4(%rbp), %eax
	movslq	%eax, %rdx
	movq	-24(%rbp), %rax
	addq	%rdx, %rax
	movl	-8(%rbp), %edx
	movb	%dl, (%rax)
	addl	$1, -4(%rbp)
.L10:
	movl	-4(%rbp), %eax
	movslq	%eax, %rdx
	movq	-24(%rbp), %rax
	addq	%rdx, %rax
	movb	$0, (%rax)
	movl	-4(%rbp), %eax
	leave
	.cfi_def_cfa 7, 8
	ret
	.cfi_endproc
.LFE1:
	.size	get_line, .-get_line
	.globl	remove_trailing_blanks
	.type	remove_trailing_blanks, @function
remove_trailing_blanks:
.LFB2:
	.cfi_startproc
	pushq	%rbp
	.cfi_def_cfa_offset 16
	.cfi_offset 6, -16
	movq	%rsp, %rbp
	.cfi_def_cfa_register 6
	movq	%rdi, -24(%rbp)
	movl	%esi, -28(%rbp)
	movl	-28(%rbp), %eax
	subl	$2, %eax
	movl	%eax, -4(%rbp)
	jmp	.L13
.L14:
	subl	$1, -4(%rbp)
.L13:
	movl	-4(%rbp), %eax
	movslq	%eax, %rdx
	movq	-24(%rbp), %rax
	addq	%rdx, %rax
	movzbl	(%rax), %eax
	cmpb	$32, %al
	je	.L14
	movl	-4(%rbp), %eax
	movslq	%eax, %rdx
	movq	-24(%rbp), %rax
	addq	%rdx, %rax
	movzbl	(%rax), %eax
	cmpb	$9, %al
	je	.L14
	movl	-4(%rbp), %eax
	cltq
	leaq	1(%rax), %rdx
	movq	-24(%rbp), %rax
	addq	%rdx, %rax
	movb	$10, (%rax)
	movl	-4(%rbp), %eax
	cltq
	leaq	2(%rax), %rdx
	movq	-24(%rbp), %rax
	addq	%rdx, %rax
	movb	$0, (%rax)
	nop
	popq	%rbp
	.cfi_def_cfa 7, 8
	ret
	.cfi_endproc
.LFE2:
	.size	remove_trailing_blanks, .-remove_trailing_blanks
	.ident	"GCC: (GNU) 12.2.0"
	.section	.note.GNU-stack,"",@progbits
