	.file	"itoa.c"
	.text
	.section	.rodata
.LC0:
	.string	"%s"
	.text
	.globl	main
	.type	main, @function
main:
.LFB0:
	.cfi_startproc
	pushq	%rbp
	.cfi_def_cfa_offset 16
	.cfi_offset 6, -16
	movq	%rsp, %rbp
	.cfi_def_cfa_register 6
	addq	$-128, %rsp
	movq	%fs:40, %rax
	movq	%rax, -8(%rbp)
	xorl	%eax, %eax
	movl	$1234, -116(%rbp)
	leaq	-112(%rbp), %rdx
	movl	-116(%rbp), %eax
	movq	%rdx, %rsi
	movl	%eax, %edi
	call	int_to_array
	leaq	-112(%rbp), %rax
	movq	%rax, %rsi
	leaq	.LC0(%rip), %rax
	movq	%rax, %rdi
	movl	$0, %eax
	call	printf@PLT
	movl	$0, %eax
	movq	-8(%rbp), %rdx
	subq	%fs:40, %rdx
	je	.L3
	call	__stack_chk_fail@PLT
.L3:
	leave
	.cfi_def_cfa 7, 8
	ret
	.cfi_endproc
.LFE0:
	.size	main, .-main
	.globl	int_to_array
	.type	int_to_array, @function
int_to_array:
.LFB1:
	.cfi_startproc
	pushq	%rbp
	.cfi_def_cfa_offset 16
	.cfi_offset 6, -16
	movq	%rsp, %rbp
	.cfi_def_cfa_register 6
	subq	$32, %rsp
	movl	%edi, -20(%rbp)
	movq	%rsi, -32(%rbp)
	cmpl	$0, -20(%rbp)
	je	.L6
	movl	-20(%rbp), %edx
	movslq	%edx, %rax
	imulq	$1717986919, %rax, %rax
	shrq	$32, %rax
	movl	%eax, %ecx
	sarl	$2, %ecx
	movl	%edx, %eax
	sarl	$31, %eax
	subl	%eax, %ecx
	movl	%ecx, %eax
	sall	$2, %eax
	addl	%ecx, %eax
	addl	%eax, %eax
	subl	%eax, %edx
	movl	%edx, -4(%rbp)
	movl	-20(%rbp), %eax
	movslq	%eax, %rdx
	imulq	$1717986919, %rdx, %rdx
	shrq	$32, %rdx
	movl	%edx, %ecx
	sarl	$2, %ecx
	cltd
	movl	%ecx, %eax
	subl	%edx, %eax
	movl	%eax, -20(%rbp)
	movq	-32(%rbp), %rdx
	movl	-20(%rbp), %eax
	movq	%rdx, %rsi
	movl	%eax, %edi
	call	int_to_array
	movl	-4(%rbp), %eax
	leal	48(%rax), %ecx
	movl	i.0(%rip), %eax
	leal	1(%rax), %edx
	movl	%edx, i.0(%rip)
	movslq	%eax, %rdx
	movq	-32(%rbp), %rax
	addq	%rdx, %rax
	movl	%ecx, %edx
	movb	%dl, (%rax)
	movl	i.0(%rip), %eax
	movslq	%eax, %rdx
	movq	-32(%rbp), %rax
	addq	%rdx, %rax
	movb	$0, (%rax)
.L6:
	nop
	leave
	.cfi_def_cfa 7, 8
	ret
	.cfi_endproc
.LFE1:
	.size	int_to_array, .-int_to_array
	.local	i.0
	.comm	i.0,4,4
	.ident	"GCC: (GNU) 12.2.0"
	.section	.note.GNU-stack,"",@progbits
