	.file	"htoi.c"
	.text
	.section	.rodata
.LC0:
	.string	"%d"
	.text
	.globl	main
	.type	main, @function
main:
.LFB0:
	.cfi_startproc
	pushq	%rbp
	.cfi_def_cfa_offset 16
	.cfi_offset 6, -16
	movq	%rsp, %rbp
	.cfi_def_cfa_register 6
	subq	$112, %rsp
	movq	%fs:40, %rax
	movq	%rax, -8(%rbp)
	xorl	%eax, %eax
	leaq	-112(%rbp), %rax
	movl	$100, %esi
	movq	%rax, %rdi
	call	get_line
	leaq	-112(%rbp), %rax
	movq	%rax, %rdi
	call	htoi
	movl	%eax, %esi
	leaq	.LC0(%rip), %rax
	movq	%rax, %rdi
	movl	$0, %eax
	call	printf@PLT
	movl	$0, %eax
	movq	-8(%rbp), %rdx
	subq	%fs:40, %rdx
	je	.L3
	call	__stack_chk_fail@PLT
.L3:
	leave
	.cfi_def_cfa 7, 8
	ret
	.cfi_endproc
.LFE0:
	.size	main, .-main
	.globl	get_line
	.type	get_line, @function
get_line:
.LFB1:
	.cfi_startproc
	pushq	%rbp
	.cfi_def_cfa_offset 16
	.cfi_offset 6, -16
	movq	%rsp, %rbp
	.cfi_def_cfa_register 6
	subq	$32, %rsp
	movq	%rdi, -24(%rbp)
	movl	%esi, -28(%rbp)
	movl	$0, -4(%rbp)
	jmp	.L5
.L7:
	movl	-4(%rbp), %eax
	leal	1(%rax), %edx
	movl	%edx, -4(%rbp)
	movslq	%eax, %rdx
	movq	-24(%rbp), %rax
	addq	%rax, %rdx
	movzbl	-5(%rbp), %eax
	movb	%al, (%rdx)
.L5:
	movl	-28(%rbp), %eax
	subl	$1, %eax
	cmpl	%eax, -4(%rbp)
	jge	.L6
	call	getchar@PLT
	movb	%al, -5(%rbp)
	cmpb	$-1, -5(%rbp)
	je	.L6
	cmpb	$10, -5(%rbp)
	jne	.L7
.L6:
	movl	-4(%rbp), %eax
	movslq	%eax, %rdx
	movq	-24(%rbp), %rax
	addq	%rdx, %rax
	movb	$0, (%rax)
	movl	-4(%rbp), %eax
	leave
	.cfi_def_cfa 7, 8
	ret
	.cfi_endproc
.LFE1:
	.size	get_line, .-get_line
	.section	.rodata
	.align 8
.LC2:
	.string	"Error: Not a valid hex value.\n Try this format: 0xHHHH, where H is a hex digit."
	.text
	.globl	htoi
	.type	htoi, @function
htoi:
.LFB2:
	.cfi_startproc
	pushq	%rbp
	.cfi_def_cfa_offset 16
	.cfi_offset 6, -16
	movq	%rsp, %rbp
	.cfi_def_cfa_register 6
	subq	$32, %rsp
	movq	%rdi, -24(%rbp)
	movl	$0, -16(%rbp)
	movl	$0, -12(%rbp)
	movq	-24(%rbp), %rax
	movq	%rax, %rdi
	call	strlen@PLT
	movl	%eax, -4(%rbp)
	jmp	.L10
.L20:
	movl	-12(%rbp), %eax
	movslq	%eax, %rdx
	movq	-24(%rbp), %rax
	addq	%rdx, %rax
	movzbl	(%rax), %eax
	cmpb	$48, %al
	jne	.L11
	movl	-12(%rbp), %eax
	cltq
	leaq	1(%rax), %rdx
	movq	-24(%rbp), %rax
	addq	%rdx, %rax
	movzbl	(%rax), %eax
	cmpb	$120, %al
	je	.L12
	movl	-12(%rbp), %eax
	cltq
	leaq	1(%rax), %rdx
	movq	-24(%rbp), %rax
	addq	%rdx, %rax
	movzbl	(%rax), %eax
	cmpb	$88, %al
	jne	.L11
.L12:
	addl	$2, -12(%rbp)
.L11:
	movl	-12(%rbp), %eax
	movslq	%eax, %rdx
	movq	-24(%rbp), %rax
	addq	%rdx, %rax
	movzbl	(%rax), %eax
	movsbl	%al, %eax
	movl	%eax, %edi
	call	tolower@PLT
	movl	%eax, -8(%rbp)
	call	__ctype_b_loc@PLT
	movq	(%rax), %rax
	movl	-8(%rbp), %edx
	movslq	%edx, %rdx
	addq	%rdx, %rdx
	addq	%rdx, %rax
	movzwl	(%rax), %eax
	movzwl	%ax, %eax
	andl	$2048, %eax
	testl	%eax, %eax
	je	.L13
	subl	$48, -8(%rbp)
.L13:
	call	__ctype_b_loc@PLT
	movq	(%rax), %rax
	movl	-8(%rbp), %edx
	movslq	%edx, %rdx
	addq	%rdx, %rdx
	addq	%rdx, %rax
	movzwl	(%rax), %eax
	movzwl	%ax, %eax
	andl	$1024, %eax
	testl	%eax, %eax
	je	.L14
	cmpl	$102, -8(%rbp)
	jg	.L14
	subl	$87, -8(%rbp)
.L14:
	movl	-12(%rbp), %eax
	movslq	%eax, %rdx
	movq	-24(%rbp), %rax
	addq	%rdx, %rax
	movzbl	(%rax), %eax
	cmpb	$47, %al
	jle	.L15
	movl	-12(%rbp), %eax
	movslq	%eax, %rdx
	movq	-24(%rbp), %rax
	addq	%rdx, %rax
	movzbl	(%rax), %eax
	cmpb	$57, %al
	jle	.L16
.L15:
	movl	-12(%rbp), %eax
	movslq	%eax, %rdx
	movq	-24(%rbp), %rax
	addq	%rdx, %rax
	movzbl	(%rax), %eax
	cmpb	$96, %al
	jle	.L17
	movl	-12(%rbp), %eax
	movslq	%eax, %rdx
	movq	-24(%rbp), %rax
	addq	%rdx, %rax
	movzbl	(%rax), %eax
	cmpb	$102, %al
	jle	.L16
.L17:
	movl	-12(%rbp), %eax
	movslq	%eax, %rdx
	movq	-24(%rbp), %rax
	addq	%rdx, %rax
	movzbl	(%rax), %eax
	cmpb	$64, %al
	jle	.L18
	movl	-12(%rbp), %eax
	movslq	%eax, %rdx
	movq	-24(%rbp), %rax
	addq	%rdx, %rax
	movzbl	(%rax), %eax
	cmpb	$70, %al
	jg	.L18
.L16:
	movl	-4(%rbp), %eax
	subl	-12(%rbp), %eax
	subl	$1, %eax
	pxor	%xmm0, %xmm0
	cvtsi2sdl	%eax, %xmm0
	movq	.LC1(%rip), %rax
	movapd	%xmm0, %xmm1
	movq	%rax, %xmm0
	call	pow@PLT
	cvttsd2sil	%xmm0, %eax
	imull	-8(%rbp), %eax
	addl	%eax, -16(%rbp)
	jmp	.L19
.L18:
	leaq	.LC2(%rip), %rax
	movq	%rax, %rdi
	call	puts@PLT
.L19:
	addl	$1, -12(%rbp)
.L10:
	movl	-12(%rbp), %eax
	cmpl	-4(%rbp), %eax
	jl	.L20
	movl	-16(%rbp), %eax
	leave
	.cfi_def_cfa 7, 8
	ret
	.cfi_endproc
.LFE2:
	.size	htoi, .-htoi
	.section	.rodata
	.align 8
.LC1:
	.long	0
	.long	1076887552
	.ident	"GCC: (GNU) 12.2.0"
	.section	.note.GNU-stack,"",@progbits
