	.file	"c_remove_comments.c"
	.text
	.section	.rodata
.LC0:
	.string	"%s"
	.text
	.globl	main
	.type	main, @function
main:
.LFB0:
	.cfi_startproc
	pushq	%rbp
	.cfi_def_cfa_offset 16
	.cfi_offset 6, -16
	movq	%rsp, %rbp
	.cfi_def_cfa_register 6
	subq	$20016, %rsp
	movq	%fs:40, %rax
	movq	%rax, -8(%rbp)
	xorl	%eax, %eax
	leaq	-20016(%rbp), %rax
	movl	$10000, %esi
	movq	%rax, %rdi
	call	get_str
	leaq	-10016(%rbp), %rdx
	leaq	-20016(%rbp), %rax
	movq	%rdx, %rsi
	movq	%rax, %rdi
	call	remove_comments
	leaq	-10016(%rbp), %rax
	movq	%rax, %rsi
	leaq	.LC0(%rip), %rax
	movq	%rax, %rdi
	movl	$0, %eax
	call	printf@PLT
	movl	$0, %eax
	movq	-8(%rbp), %rdx
	subq	%fs:40, %rdx
	je	.L3
	call	__stack_chk_fail@PLT
.L3:
	leave
	.cfi_def_cfa 7, 8
	ret
	.cfi_endproc
.LFE0:
	.size	main, .-main
	.globl	get_str
	.type	get_str, @function
get_str:
.LFB1:
	.cfi_startproc
	pushq	%rbp
	.cfi_def_cfa_offset 16
	.cfi_offset 6, -16
	movq	%rsp, %rbp
	.cfi_def_cfa_register 6
	subq	$32, %rsp
	movq	%rdi, -24(%rbp)
	movl	%esi, -28(%rbp)
	movl	$0, -8(%rbp)
	jmp	.L5
.L7:
	movl	-8(%rbp), %eax
	leal	1(%rax), %edx
	movl	%edx, -8(%rbp)
	movslq	%eax, %rdx
	movq	-24(%rbp), %rax
	addq	%rdx, %rax
	movl	-4(%rbp), %edx
	movb	%dl, (%rax)
.L5:
	movl	-28(%rbp), %eax
	subl	$1, %eax
	cmpl	%eax, -8(%rbp)
	jge	.L6
	call	getchar@PLT
	movl	%eax, -4(%rbp)
	cmpl	$-1, -4(%rbp)
	jne	.L7
.L6:
	movl	-8(%rbp), %eax
	movslq	%eax, %rdx
	movq	-24(%rbp), %rax
	addq	%rdx, %rax
	movb	$0, (%rax)
	movl	-8(%rbp), %eax
	leave
	.cfi_def_cfa 7, 8
	ret
	.cfi_endproc
.LFE1:
	.size	get_str, .-get_str
	.globl	remove_comments
	.type	remove_comments, @function
remove_comments:
.LFB2:
	.cfi_startproc
	pushq	%rbp
	.cfi_def_cfa_offset 16
	.cfi_offset 6, -16
	movq	%rsp, %rbp
	.cfi_def_cfa_register 6
	movq	%rdi, -40(%rbp)
	movq	%rsi, -48(%rbp)
	movl	$0, -20(%rbp)
	movl	$0, -16(%rbp)
	movl	$0, -12(%rbp)
	movl	$0, -8(%rbp)
	movl	$0, -4(%rbp)
	jmp	.L10
.L22:
	cmpl	$0, -20(%rbp)
	jne	.L11
	movl	-8(%rbp), %eax
	movslq	%eax, %rdx
	movq	-40(%rbp), %rax
	addq	%rdx, %rax
	movzbl	(%rax), %eax
	cmpb	$34, %al
	jne	.L11
	movl	$1, -20(%rbp)
	jmp	.L12
.L11:
	cmpl	$0, -20(%rbp)
	je	.L12
	movl	-8(%rbp), %eax
	movslq	%eax, %rdx
	movq	-40(%rbp), %rax
	addq	%rdx, %rax
	movzbl	(%rax), %eax
	cmpb	$34, %al
	jne	.L12
	movl	$0, -20(%rbp)
.L12:
	cmpl	$0, -20(%rbp)
	jne	.L13
	movl	-8(%rbp), %eax
	movslq	%eax, %rdx
	movq	-40(%rbp), %rax
	addq	%rdx, %rax
	movzbl	(%rax), %eax
	cmpb	$47, %al
	jne	.L14
	movl	-8(%rbp), %eax
	cltq
	leaq	1(%rax), %rdx
	movq	-40(%rbp), %rax
	addq	%rdx, %rax
	movzbl	(%rax), %eax
	cmpb	$42, %al
	jne	.L14
	cmpl	$0, -16(%rbp)
	jne	.L14
	movl	$1, -12(%rbp)
.L14:
	movl	-8(%rbp), %eax
	movslq	%eax, %rdx
	movq	-40(%rbp), %rax
	addq	%rdx, %rax
	movzbl	(%rax), %eax
	cmpb	$42, %al
	jne	.L15
	movl	-8(%rbp), %eax
	cltq
	leaq	1(%rax), %rdx
	movq	-40(%rbp), %rax
	addq	%rdx, %rax
	movzbl	(%rax), %eax
	cmpb	$47, %al
	jne	.L15
	movl	$0, -12(%rbp)
	addl	$2, -8(%rbp)
.L15:
	movl	-8(%rbp), %eax
	movslq	%eax, %rdx
	movq	-40(%rbp), %rax
	addq	%rdx, %rax
	movzbl	(%rax), %eax
	cmpb	$47, %al
	jne	.L16
	movl	-8(%rbp), %eax
	movslq	%eax, %rdx
	movq	-40(%rbp), %rax
	addq	%rdx, %rax
	movzbl	(%rax), %eax
	cmpb	$47, %al
	jne	.L16
	movl	$1, -16(%rbp)
.L16:
	movl	-8(%rbp), %eax
	movslq	%eax, %rdx
	movq	-40(%rbp), %rax
	addq	%rdx, %rax
	movzbl	(%rax), %eax
	cmpb	$10, %al
	jne	.L17
	movl	$0, -16(%rbp)
.L17:
	cmpl	$0, -16(%rbp)
	jne	.L18
	cmpl	$0, -12(%rbp)
	je	.L19
.L18:
	addl	$1, -8(%rbp)
	jmp	.L10
.L19:
	cmpl	$0, -16(%rbp)
	je	.L21
	cmpl	$0, -12(%rbp)
	jne	.L10
.L21:
	movl	-8(%rbp), %eax
	leal	1(%rax), %edx
	movl	%edx, -8(%rbp)
	movslq	%eax, %rdx
	movq	-40(%rbp), %rax
	leaq	(%rdx,%rax), %rcx
	movl	-4(%rbp), %eax
	leal	1(%rax), %edx
	movl	%edx, -4(%rbp)
	movslq	%eax, %rdx
	movq	-48(%rbp), %rax
	addq	%rax, %rdx
	movzbl	(%rcx), %eax
	movb	%al, (%rdx)
	jmp	.L10
.L13:
	movl	-8(%rbp), %eax
	leal	1(%rax), %edx
	movl	%edx, -8(%rbp)
	movslq	%eax, %rdx
	movq	-40(%rbp), %rax
	leaq	(%rdx,%rax), %rcx
	movl	-4(%rbp), %eax
	leal	1(%rax), %edx
	movl	%edx, -4(%rbp)
	movslq	%eax, %rdx
	movq	-48(%rbp), %rax
	addq	%rax, %rdx
	movzbl	(%rcx), %eax
	movb	%al, (%rdx)
.L10:
	movl	-8(%rbp), %eax
	movslq	%eax, %rdx
	movq	-40(%rbp), %rax
	addq	%rdx, %rax
	movzbl	(%rax), %eax
	testb	%al, %al
	jne	.L22
	movl	-4(%rbp), %eax
	movslq	%eax, %rdx
	movq	-48(%rbp), %rax
	addq	%rdx, %rax
	movb	$0, (%rax)
	nop
	popq	%rbp
	.cfi_def_cfa 7, 8
	ret
	.cfi_endproc
.LFE2:
	.size	remove_comments, .-remove_comments
	.ident	"GCC: (GNU) 12.2.0"
	.section	.note.GNU-stack,"",@progbits
